target datalayout = "e-m:e-p270:32:32-p271:32:32-p272:64:64-i64:64-i128:128-f80:128-n8:16:32:64-S128"
target triple = "x86_64-pc-linux-gnu"

%struct.RelationData = type { %struct.RelFileLocator, ptr, i32, i32, i8, i8, i8, i8, i8, i32, i32, i32, i32, ptr, ptr, i32, %struct.LockInfoData, ptr, ptr, ptr, ptr, ptr, i8, ptr, ptr, ptr, ptr, ptr, ptr, i32, ptr, i8, ptr, ptr, i32, i8, i32, ptr, i8, ptr, ptr, ptr, ptr, ptr, ptr, ptr, i32, ptr, ptr, ptr, ptr, ptr, ptr, ptr, ptr, ptr, ptr, ptr, ptr, ptr, ptr, ptr, ptr, ptr, ptr, ptr, i32, i8, ptr }
%struct.RelFileLocator = type { i32, i32, i32 }
%struct.LockInfoData = type { %struct.LockRelId }
%struct.LockRelId = type { i32, i32 }
%struct.FormData_pg_class = type { i32, %struct.nameData, i32, i32, i32, i32, i32, i32, i32, i32, float, i32, i32, i8, i8, i8, i8, i16, i16, i8, i8, i8, i8, i8, i8, i8, i8, i32, i32, i32 }
%struct.nameData = type { [64 x i8] }

@.str = private unnamed_addr constant [41 x i8] c"\22%s\22 is not a table or materialized view\00", align 1
@.str.1 = private unnamed_addr constant [11 x i8] c"toasting.c\00", align 1
@__func__.BootstrapToastTable = private unnamed_addr constant [20 x i8] c"BootstrapToastTable\00", align 1
@.str.2 = private unnamed_addr constant [36 x i8] c"\22%s\22 does not require a toast table\00", align 1

; Function Attrs: nounwind uwtable
define dso_local void @BootstrapToastTable(ptr noundef %0, i32 noundef %1, i32 noundef %2) #0 {
  %4 = alloca ptr, align 8
  %5 = alloca i32, align 4
  %6 = alloca i32, align 4
  %7 = alloca ptr, align 8
  store ptr %0, ptr %4, align 8
  store i32 %1, ptr %5, align 4
  store i32 %2, ptr %6, align 4
  call void @llvm.lifetime.start.p0(i64 8, ptr %7) #5
  %8 = load ptr, ptr %4, align 8
  %9 = call ptr @makeRangeVar(ptr noundef null, ptr noundef %8, i32 noundef -1)
  %10 = call ptr @table_openrv(ptr noundef %9, i32 noundef 8)
  store ptr %10, ptr %7, align 8
  %11 = load ptr, ptr %7, align 8
  %12 = getelementptr inbounds nuw %struct.RelationData, ptr %11, i32 0, i32 13
  %13 = load ptr, ptr %12, align 8
  %14 = getelementptr inbounds nuw %struct.FormData_pg_class, ptr %13, i32 0, i32 16
  %15 = load i8, ptr %14, align 1
  %16 = sext i8 %15 to i32
  %17 = icmp ne i32 %16, 114
  br i1 %17, label %18, label %38

18:                                               ; preds = %3
  %19 = load ptr, ptr %7, align 8
  %20 = getelementptr inbounds nuw %struct.RelationData, ptr %19, i32 0, i32 13
  %21 = load ptr, ptr %20, align 8
  %22 = getelementptr inbounds nuw %struct.FormData_pg_class, ptr %21, i32 0, i32 16
  %23 = load i8, ptr %22, align 1
  %24 = sext i8 %23 to i32
  %25 = icmp ne i32 %24, 109
  br i1 %25, label %26, label %38

26:                                               ; preds = %18
  br label %27

27:                                               ; preds = %26
  br i1 true, label %28, label %30

28:                                               ; preds = %27
  %29 = call zeroext i1 @errstart_cold(i32 noundef 21, ptr noundef null) #6
  br i1 %29, label %32, label %35

30:                                               ; preds = %27
  %31 = call zeroext i1 @errstart(i32 noundef 21, ptr noundef null)
  br i1 %31, label %32, label %35

32:                                               ; preds = %30, %28
  %33 = load ptr, ptr %4, align 8
  %34 = call i32 (ptr, ...) @errmsg_internal(ptr noundef @.str, ptr noundef %33)
  call void @errfinish(ptr noundef @.str.1, i32 noundef 107, ptr noundef @__func__.BootstrapToastTable)
  br label %35

35:                                               ; preds = %32, %30, %28
  unreachable

36:                                               ; No predecessors!
  br label %37

37:                                               ; preds = %36
  br label %38

38:                                               ; preds = %37, %18, %3
  %39 = load ptr, ptr %7, align 8
  %40 = load i32, ptr %5, align 4
  %41 = load i32, ptr %6, align 4
  %42 = call zeroext i1 @create_toast_table(ptr noundef %39, i32 noundef %40, i32 noundef %41, i64 noundef 0, i32 noundef 8, i1 noundef zeroext false, i32 noundef 0)
  br i1 %42, label %55, label %43

43:                                               ; preds = %38
  br label %44

44:                                               ; preds = %43
  br i1 true, label %45, label %47

45:                                               ; preds = %44
  %46 = call zeroext i1 @errstart_cold(i32 noundef 21, ptr noundef null) #6
  br i1 %46, label %49, label %52

47:                                               ; preds = %44
  %48 = call zeroext i1 @errstart(i32 noundef 21, ptr noundef null)
  br i1 %48, label %49, label %52

49:                                               ; preds = %47, %45
  %50 = load ptr, ptr %4, align 8
  %51 = call i32 (ptr, ...) @errmsg_internal(ptr noundef @.str.2, ptr noundef %50)
  call void @errfinish(ptr noundef @.str.1, i32 noundef 113, ptr noundef @__func__.BootstrapToastTable)
  br label %52

52:                                               ; preds = %49, %47, %45
  unreachable

53:                                               ; No predecessors!
  br label %54

54:                                               ; preds = %53
  br label %55

55:                                               ; preds = %54, %38
  %56 = load ptr, ptr %7, align 8
  call void @table_close(ptr noundef %56, i32 noundef 0)
  call void @llvm.lifetime.end.p0(i64 8, ptr %7) #5
  ret void
}