; Function Attrs: nounwind uwtable
define dso_local void @BootstrapToastTable(ptr noundef %0, i32 noundef %1, i32 noundef %2) local_unnamed_addr #0 {
  %4 = tail call ptr @makeRangeVar(ptr noundef null, ptr noundef %0, i32 noundef -1) #6
  %5 = tail call ptr @table_openrv(ptr noundef %4, i32 noundef 8) #6
  %6 = getelementptr inbounds nuw i8, ptr %5, i64 56
  %7 = load ptr, ptr %6, align 8
  %8 = getelementptr inbounds nuw i8, ptr %7, i64 115
  %9 = load i8, ptr %8, align 1
  switch i8 %9, label %10 [
    i8 114, label %13
    i8 109, label %13
  ]

10:                                               ; preds = %3
  %11 = tail call zeroext i1 @errstart_cold(i32 noundef 21, ptr noundef null) #7
  tail call void @llvm.assume(i1 %11)
  %12 = tail call i32 (ptr, ...) @errmsg_internal(ptr noundef nonnull @.str, ptr noundef %0) #6
  tail call void @errfinish(ptr noundef nonnull @.str.1, i32 noundef 107, ptr noundef nonnull @__func__.BootstrapToastTable) #6
  unreachable

13:                                               ; preds = %3, %3
  %14 = tail call fastcc zeroext i1 @create_toast_table(ptr noundef nonnull %5, i32 noundef %1, i32 noundef %2, i64 noundef 0, i32 noundef 8, i1 noundef zeroext false, i32 noundef 0)
  br i1 %14, label %18, label %15

15:                                               ; preds = %13
  %16 = tail call zeroext i1 @errstart_cold(i32 noundef 21, ptr noundef null) #7
  tail call void @llvm.assume(i1 %16)
  %17 = tail call i32 (ptr, ...) @errmsg_internal(ptr noundef nonnull @.str.2, ptr noundef %0) #6
  tail call void @errfinish(ptr noundef nonnull @.str.1, i32 noundef 113, ptr noundef nonnull @__func__.BootstrapToastTable) #6
  unreachable

18:                                               ; preds = %13
  tail call void @table_close(ptr noundef nonnull %5, i32 noundef 0) #6
  ret void
}